target datalayout = "e-m:e-p270:32:32-p271:32:32-p272:64:64-i64:64-i128:128-f80:128-n8:16:32:64-S128"
target triple = "x86_64-pc-linux-gnu"

%struct.uv_handle_s = type { ptr, ptr, i32, ptr, [2 x ptr], %union.anon.0, ptr, i32 }
%union.anon.0 = type { [4 x ptr] }
%struct.uv_loop_s = type { ptr, i32, [2 x ptr], %union.anon.1, ptr, i32, i64, i32, [2 x ptr], [2 x ptr], ptr, i32, i32, [2 x ptr], %union.pthread_mutex_t, %struct.uv_async_s, %union.pthread_rwlock_t, ptr, [2 x ptr], [2 x ptr], [2 x ptr], [2 x ptr], [2 x ptr], ptr, %struct.uv__io_s, i32, %struct.anon, i64, i64, [2 x i32], %struct.uv__io_s, %struct.uv_signal_s, i32, %struct.uv__io_s, ptr, i32 }
%union.anon.1 = type { ptr }
%union.pthread_mutex_t = type { %struct.__pthread_mutex_s }
%struct.__pthread_mutex_s = type { i32, i32, i32, i32, i32, i16, i16, %struct.__pthread_internal_list }
%struct.__pthread_internal_list = type { ptr, ptr }
%struct.uv_async_s = type { ptr, ptr, i32, ptr, [2 x ptr], %union.anon.2, ptr, i32, ptr, [2 x ptr], i32 }
%union.anon.2 = type { [4 x ptr] }
%union.pthread_rwlock_t = type { %struct.__pthread_rwlock_arch_t }
%struct.__pthread_rwlock_arch_t = type { i32, i32, i32, i32, i32, i32, i32, i32, i8, [7 x i8], i64, i32 }
%struct.anon = type { ptr, i32 }
%struct.uv_signal_s = type { ptr, ptr, i32, ptr, [2 x ptr], %union.anon.3, ptr, i32, ptr, i32, %struct.anon.4, i32, i32 }
%union.anon.3 = type { [4 x ptr] }
%struct.anon.4 = type { ptr, ptr, ptr, i32 }
%struct.uv__io_s = type { ptr, [2 x ptr], [2 x ptr], i32, i32, i32 }
%struct.uv_timer_s = type { ptr, ptr, i32, ptr, [2 x ptr], %union.anon, ptr, i32, ptr, [3 x ptr], i64, i64, i64 }
%union.anon = type { [4 x ptr] }

; Function Attrs: nounwind uwtable
define dso_local i32 @uv_timer_init(ptr noundef %0, ptr noundef %1) #0 {
  %3 = alloca ptr, align 8
  %4 = alloca ptr, align 8
  store ptr %0, ptr %3, align 8
  store ptr %1, ptr %4, align 8
  br label %5

5:                                                ; preds = %2
  %6 = load ptr, ptr %3, align 8
  %7 = load ptr, ptr %4, align 8
  %8 = getelementptr inbounds %struct.uv_handle_s, ptr %7, i32 0, i32 1
  store ptr %6, ptr %8, align 8
  %9 = load ptr, ptr %4, align 8
  %10 = getelementptr inbounds %struct.uv_handle_s, ptr %9, i32 0, i32 2
  store i32 13, ptr %10, align 8
  %11 = load ptr, ptr %4, align 8
  %12 = getelementptr inbounds %struct.uv_handle_s, ptr %11, i32 0, i32 7
  store i32 8, ptr %12, align 8
  br label %13

13:                                               ; preds = %5
  %14 = load ptr, ptr %3, align 8
  %15 = getelementptr inbounds %struct.uv_loop_s, ptr %14, i32 0, i32 2
  %16 = load ptr, ptr %4, align 8
  %17 = getelementptr inbounds %struct.uv_handle_s, ptr %16, i32 0, i32 4
  %18 = getelementptr inbounds [2 x ptr], ptr %17, i64 0, i64 0
  store ptr %15, ptr %18, align 8
  %19 = load ptr, ptr %3, align 8
  %20 = getelementptr inbounds %struct.uv_loop_s, ptr %19, i32 0, i32 2
  %21 = getelementptr inbounds [2 x ptr], ptr %20, i64 0, i64 1
  %22 = load ptr, ptr %21, align 8
  %23 = load ptr, ptr %4, align 8
  %24 = getelementptr inbounds %struct.uv_handle_s, ptr %23, i32 0, i32 4
  %25 = getelementptr inbounds [2 x ptr], ptr %24, i64 0, i64 1
  store ptr %22, ptr %25, align 8
  %26 = load ptr, ptr %4, align 8
  %27 = getelementptr inbounds %struct.uv_handle_s, ptr %26, i32 0, i32 4
  %28 = load ptr, ptr %4, align 8
  %29 = getelementptr inbounds %struct.uv_handle_s, ptr %28, i32 0, i32 4
  %30 = getelementptr inbounds [2 x ptr], ptr %29, i64 0, i64 1
  %31 = load ptr, ptr %30, align 8
  %32 = getelementptr inbounds [2 x ptr], ptr %31, i64 0, i64 0
  store ptr %27, ptr %32, align 8
  %33 = load ptr, ptr %4, align 8
  %34 = getelementptr inbounds %struct.uv_handle_s, ptr %33, i32 0, i32 4
  %35 = load ptr, ptr %3, align 8
  %36 = getelementptr inbounds %struct.uv_loop_s, ptr %35, i32 0, i32 2
  %37 = getelementptr inbounds [2 x ptr], ptr %36, i64 0, i64 1
  store ptr %34, ptr %37, align 8
  br label %38

38:                                               ; preds = %13
  %39 = load ptr, ptr %4, align 8
  %40 = getelementptr inbounds %struct.uv_handle_s, ptr %39, i32 0, i32 6
  store ptr null, ptr %40, align 8
  br label %41

41:                                               ; preds = %38
  %42 = load ptr, ptr %4, align 8
  %43 = getelementptr inbounds %struct.uv_timer_s, ptr %42, i32 0, i32 8
  store ptr null, ptr %43, align 8
  %44 = load ptr, ptr %4, align 8
  %45 = getelementptr inbounds %struct.uv_timer_s, ptr %44, i32 0, i32 10
  store i64 0, ptr %45, align 8
  %46 = load ptr, ptr %4, align 8
  %47 = getelementptr inbounds %struct.uv_timer_s, ptr %46, i32 0, i32 11
  store i64 0, ptr %47, align 8
  ret i32 0
}